; Function Attrs: nounwind uwtable
define dso_local void @Curl_shutdown_start(ptr noundef readonly captures(none) %0, i32 noundef %1, ptr noundef readonly %2) local_unnamed_addr #0 {
  %4 = alloca %struct.curltime, align 8
  call void @llvm.lifetime.start.p0(i64 16, ptr nonnull %4) #10
  %.not = icmp eq ptr %2, null
  br i1 %.not, label %5, label %9

5:                                                ; preds = %3
  %6 = tail call { i64, i32 } @Curl_now() #10
  %7 = extractvalue { i64, i32 } %6, 0
  %8 = extractvalue { i64, i32 } %6, 1
  store i64 %7, ptr %4, align 8, !tbaa !77
  %.sroa.4.0..sroa_idx = getelementptr inbounds nuw i8, ptr %4, i64 8
  store i32 %8, ptr %.sroa.4.0..sroa_idx, align 8, !tbaa !78
  br label %9

9:                                                ; preds = %5, %3
  %.0 = phi ptr [ %2, %3 ], [ %4, %5 ]
  %10 = getelementptr inbounds nuw i8, ptr %0, i64 24
  %11 = load ptr, ptr %10, align 8, !tbaa !80
  %12 = getelementptr inbounds nuw i8, ptr %11, i64 624
  %13 = sext i32 %1 to i64
  %14 = getelementptr inbounds [2 x %struct.curltime], ptr %12, i64 0, i64 %13
  call void @llvm.memcpy.p0.p0.i64(ptr noundef nonnull align 8 dereferenceable(16) %14, ptr noundef nonnull align 8 dereferenceable(16) %.0, i64 16, i1 false), !tbaa.struct !81
  %15 = getelementptr inbounds nuw i8, ptr %0, i64 768
  %16 = load i32, ptr %15, align 8, !tbaa !82
  %.not8 = icmp eq i32 %16, 0
  %spec.select = select i1 %.not8, i32 2000, i32 %16
  %17 = load ptr, ptr %10, align 8, !tbaa !80
  %18 = getelementptr inbounds nuw i8, ptr %17, i64 656
  store i32 %spec.select, ptr %18, align 8, !tbaa !83
  call void @llvm.lifetime.end.p0(i64 16, ptr nonnull %4) #10
  ret void
}